; Function Attrs: mustprogress nounwind uwtable
define dso_local void @_ZN6spdlog7details2os16sleep_for_millisEj(i32 noundef %0) local_unnamed_addr #1 personality ptr @__gxx_personality_v0 {
  %2 = alloca %struct.timespec, align 8
  %3 = icmp eq i32 %0, 0
  br i1 %3, label %_ZNSt11this_thread9sleep_forIlSt5ratioILl1ELl1000EEEEvRKNSt6chrono8durationIT_T0_EE.exit, label %4

4:                                                ; preds = %1
  %5 = zext i32 %0 to i64
  %6 = udiv i32 %0, 1000
  %.zext = zext nneg i32 %6 to i64
  %.neg.i.i = mul nsw i64 %.zext, -1000
  %7 = add nsw i64 %.neg.i.i, %5
  %8 = mul nsw i64 %7, 1000000
  call void @llvm.lifetime.start.p0(i64 16, ptr nonnull %2) #37
  store i64 %.zext, ptr %2, align 8, !tbaa !76
  %9 = getelementptr inbounds nuw i8, ptr %2, i64 8
  store i64 %8, ptr %9, align 8, !tbaa !77
  br label %10

10:                                               ; preds = %13, %4
  %11 = invoke i32 @nanosleep(ptr noundef nonnull %2, ptr noundef nonnull %2)
          to label %.noexc unwind label %17

.noexc:                                           ; preds = %10
  %12 = icmp eq i32 %11, -1
  br i1 %12, label %13, label %.critedge.i

13:                                               ; preds = %.noexc
  %14 = tail call ptr @__errno_location() #46
  %15 = load i32, ptr %14, align 4, !tbaa !54
  %16 = icmp eq i32 %15, 4
  br i1 %16, label %10, label %.critedge.i, !llvm.loop !78

.critedge.i:                                      ; preds = %13, %.noexc
  call void @llvm.lifetime.end.p0(i64 16, ptr nonnull %2) #37
  br label %_ZNSt11this_thread9sleep_forIlSt5ratioILl1ELl1000EEEEvRKNSt6chrono8durationIT_T0_EE.exit

_ZNSt11this_thread9sleep_forIlSt5ratioILl1ELl1000EEEEvRKNSt6chrono8durationIT_T0_EE.exit: ; preds = %.critedge.i, %1
  ret void

17:                                               ; preds = %10
  %18 = landingpad { ptr, i32 }
          catch ptr null
  %19 = extractvalue { ptr, i32 } %18, 0
  call void @__clang_call_terminate(ptr %19) #42
  unreachable
}